; Function Attrs: nounwind uwtable
define internal fastcc noundef ptr @_readOnConflictClause() unnamed_addr #0 {
  %1 = alloca i32, align 4
  %2 = tail call noundef ptr @palloc0(i64 noundef 40) #10
  store i32 112, ptr %2, align 4
  call void @llvm.lifetime.start.p0(i64 4, ptr nonnull %1) #10
  %3 = call ptr @pg_strtok(ptr noundef nonnull %1) #10
  %4 = call ptr @pg_strtok(ptr noundef nonnull %1) #10
  %5 = call i64 @strtol(ptr noundef nonnull captures(none) %4, ptr noundef null, i32 noundef 10) #10
  %6 = trunc i64 %5 to i32
  %7 = getelementptr inbounds nuw i8, ptr %2, i64 4
  store i32 %6, ptr %7, align 4
  %8 = call ptr @pg_strtok(ptr noundef nonnull %1) #10
  %9 = call ptr @nodeRead(ptr noundef null, i32 noundef 0) #10
  %10 = getelementptr inbounds nuw i8, ptr %2, i64 8
  store ptr %9, ptr %10, align 8
  %11 = call ptr @pg_strtok(ptr noundef nonnull %1) #10
  %12 = call ptr @nodeRead(ptr noundef null, i32 noundef 0) #10
  %13 = getelementptr inbounds nuw i8, ptr %2, i64 16
  store ptr %12, ptr %13, align 8
  %14 = call ptr @pg_strtok(ptr noundef nonnull %1) #10
  %15 = call ptr @nodeRead(ptr noundef null, i32 noundef 0) #10
  %16 = getelementptr inbounds nuw i8, ptr %2, i64 24
  store ptr %15, ptr %16, align 8
  %17 = call ptr @pg_strtok(ptr noundef nonnull %1) #10
  %18 = call ptr @pg_strtok(ptr noundef nonnull %1) #10
  %19 = getelementptr inbounds nuw i8, ptr %2, i64 32
  store i32 -1, ptr %19, align 8
  call void @llvm.lifetime.end.p0(i64 4, ptr nonnull %1) #10
  ret ptr %2
}